; Function Attrs: mustprogress uwtable
define void @_ZNK6casadi10MXFunction15symbolic_outputERKSt6vectorINS_2MXESaIS2_EE(ptr dead_on_unwind noalias writable sret(%"class.std::vector.29") align 8 %0, ptr noundef nonnull align 8 dereferenceable(1450) %1, ptr noundef nonnull align 8 dereferenceable(24) %2) unnamed_addr #3 align 2 {
  %4 = getelementptr inbounds i8, ptr %2, i64 8
  %5 = load ptr, ptr %4, align 8
  %6 = load ptr, ptr %2, align 8
  %.not = icmp eq ptr %5, %6
  br i1 %.not, label %.critedge, label %.lr.ph

.lr.ph:                                           ; preds = %3
  %7 = getelementptr inbounds i8, ptr %1, i64 1304
  br label %8

8:                                                ; preds = %.lr.ph, %8
  %9 = phi ptr [ %6, %.lr.ph ], [ %16, %8 ]
  %.011 = phi i64 [ 0, %.lr.ph ], [ %14, %8 ]
  %10 = getelementptr inbounds %"class.casadi::MX", ptr %9, i64 %.011
  %11 = load ptr, ptr %7, align 8
  %12 = getelementptr inbounds %"class.casadi::MX", ptr %11, i64 %.011
  %13 = tail call noundef zeroext i1 @_ZN6casadi2MX8is_equalERKS0_S2_x(ptr noundef nonnull align 8 dereferenceable(8) %10, ptr noundef nonnull align 8 dereferenceable(8) %12, i64 noundef 2)
  %14 = add nuw nsw i64 %.011, 1
  %15 = load ptr, ptr %4, align 8
  %16 = load ptr, ptr %2, align 8
  %17 = ptrtoint ptr %15 to i64
  %18 = ptrtoint ptr %16 to i64
  %19 = sub i64 %17, %18
  %20 = ashr exact i64 %19, 3
  %21 = icmp ult i64 %14, %20
  %22 = and i1 %21, %13
  br i1 %22, label %8, label %._crit_edge, !llvm.loop !110

._crit_edge:                                      ; preds = %8
  br i1 %13, label %.critedge, label %24

.critedge:                                        ; preds = %3, %._crit_edge
  %23 = getelementptr inbounds i8, ptr %1, i64 1328
  tail call void @_ZNSt6vectorIN6casadi2MXESaIS1_EEC2ERKS3_(ptr noundef nonnull align 8 dereferenceable(24) %0, ptr noundef nonnull align 8 dereferenceable(24) %23)
  br label %25

24:                                               ; preds = %._crit_edge
  tail call void @_ZNK6casadi16FunctionInternal15symbolic_outputERKSt6vectorINS_2MXESaIS2_EE(ptr dead_on_unwind writable sret(%"class.std::vector.29") align 8 %0, ptr noundef nonnull align 8 dereferenceable(1304) %1, ptr noundef nonnull align 8 dereferenceable(24) %2)
  br label %25

25:                                               ; preds = %24, %.critedge
  ret void
}